target datalayout = "e-m:e-p270:32:32-p271:32:32-p272:64:64-i64:64-i128:128-f80:128-n8:16:32:64-S128"
target triple = "x86_64-pc-linux-gnu"

%struct.active_request_slot = type { ptr, i32, i32, i64, ptr, ptr, ptr, ptr, ptr }
%struct.fill_chain = type { ptr, ptr, ptr }

@max_requests = internal global i32 -1, align 4
@curlm = internal global ptr null, align 8
@curl_session_count = internal global i32 0, align 4
@active_queue_head = internal global ptr null, align 8
@active_requests = dso_local global i32 0, align 4
@fill_cfg = internal global ptr null, align 8
@min_curl_sessions = internal global i32 1, align 4

; Function Attrs: nounwind uwtable
define dso_local void @fill_active_slots() #0 {
  %1 = alloca ptr, align 8
  %2 = alloca ptr, align 8
  %3 = alloca i32, align 4
  call void @llvm.lifetime.start.p0(i64 8, ptr %1) #11
  %4 = load ptr, ptr @active_queue_head, align 8, !tbaa !88
  store ptr %4, ptr %1, align 8, !tbaa !88
  br label %5

5:                                                ; preds = %36, %0
  %6 = load i32, ptr @active_requests, align 4, !tbaa !19
  %7 = load i32, ptr @max_requests, align 4, !tbaa !19
  %8 = icmp slt i32 %6, %7
  br i1 %8, label %9, label %37

9:                                                ; preds = %5
  call void @llvm.lifetime.start.p0(i64 8, ptr %2) #11
  %10 = load ptr, ptr @fill_cfg, align 8, !tbaa !115
  store ptr %10, ptr %2, align 8, !tbaa !115
  br label %11

11:                                               ; preds = %25, %9
  %12 = load ptr, ptr %2, align 8, !tbaa !115
  %13 = icmp ne ptr %12, null
  br i1 %13, label %14, label %29

14:                                               ; preds = %11
  %15 = load ptr, ptr %2, align 8, !tbaa !115
  %16 = getelementptr inbounds nuw %struct.fill_chain, ptr %15, i32 0, i32 1
  %17 = load ptr, ptr %16, align 8, !tbaa !121
  %18 = load ptr, ptr %2, align 8, !tbaa !115
  %19 = getelementptr inbounds nuw %struct.fill_chain, ptr %18, i32 0, i32 0
  %20 = load ptr, ptr %19, align 8, !tbaa !119
  %21 = call i32 %17(ptr noundef %20)
  %22 = icmp ne i32 %21, 0
  br i1 %22, label %23, label %24

23:                                               ; preds = %14
  br label %29

24:                                               ; preds = %14
  br label %25

25:                                               ; preds = %24
  %26 = load ptr, ptr %2, align 8, !tbaa !115
  %27 = getelementptr inbounds nuw %struct.fill_chain, ptr %26, i32 0, i32 2
  %28 = load ptr, ptr %27, align 8, !tbaa !122
  store ptr %28, ptr %2, align 8, !tbaa !115
  br label %11, !llvm.loop !124

29:                                               ; preds = %23, %11
  %30 = load ptr, ptr %2, align 8, !tbaa !115
  %31 = icmp ne ptr %30, null
  br i1 %31, label %33, label %32

32:                                               ; preds = %29
  store i32 3, ptr %3, align 4
  br label %34

33:                                               ; preds = %29
  store i32 0, ptr %3, align 4
  br label %34

34:                                               ; preds = %33, %32
  call void @llvm.lifetime.end.p0(i64 8, ptr %2) #11
  %35 = load i32, ptr %3, align 4
  switch i32 %35, label %68 [
    i32 0, label %36
    i32 3, label %37
  ]

36:                                               ; preds = %34
  br label %5, !llvm.loop !125

37:                                               ; preds = %34, %5
  br label %38

38:                                               ; preds = %63, %37
  %39 = load ptr, ptr %1, align 8, !tbaa !88
  %40 = icmp ne ptr %39, null
  br i1 %40, label %41, label %67

41:                                               ; preds = %38
  %42 = load ptr, ptr %1, align 8, !tbaa !88
  %43 = getelementptr inbounds nuw %struct.active_request_slot, ptr %42, i32 0, i32 1
  %44 = load i32, ptr %43, align 8, !tbaa !97
  %45 = icmp ne i32 %44, 0
  br i1 %45, label %63, label %46

46:                                               ; preds = %41
  %47 = load ptr, ptr %1, align 8, !tbaa !88
  %48 = getelementptr inbounds nuw %struct.active_request_slot, ptr %47, i32 0, i32 0
  %49 = load ptr, ptr %48, align 8, !tbaa !94
  %50 = icmp ne ptr %49, null
  br i1 %50, label %51, label %63

51:                                               ; preds = %46
  %52 = load i32, ptr @curl_session_count, align 4, !tbaa !19
  %53 = load i32, ptr @min_curl_sessions, align 4, !tbaa !19
  %54 = icmp sgt i32 %52, %53
  br i1 %54, label %55, label %63

55:                                               ; preds = %51
  %56 = load ptr, ptr %1, align 8, !tbaa !88
  %57 = getelementptr inbounds nuw %struct.active_request_slot, ptr %56, i32 0, i32 0
  %58 = load ptr, ptr %57, align 8, !tbaa !94
  call void @curl_easy_cleanup(ptr noundef %58)
  %59 = load ptr, ptr %1, align 8, !tbaa !88
  %60 = getelementptr inbounds nuw %struct.active_request_slot, ptr %59, i32 0, i32 0
  store ptr null, ptr %60, align 8, !tbaa !94
  %61 = load i32, ptr @curl_session_count, align 4, !tbaa !19
  %62 = add nsw i32 %61, -1
  store i32 %62, ptr @curl_session_count, align 4, !tbaa !19
  br label %63

63:                                               ; preds = %55, %51, %46, %41
  %64 = load ptr, ptr %1, align 8, !tbaa !88
  %65 = getelementptr inbounds nuw %struct.active_request_slot, ptr %64, i32 0, i32 8
  %66 = load ptr, ptr %65, align 8, !tbaa !90
  store ptr %66, ptr %1, align 8, !tbaa !88
  br label %38, !llvm.loop !126

67:                                               ; preds = %38
  call void @llvm.lifetime.end.p0(i64 8, ptr %1) #11
  ret void

68:                                               ; preds = %34
  unreachable
}

; Function Attrs: nounwind uwtable
define dso_local void @step_active_slots() #0 {
  %1 = alloca i32, align 4
  %2 = alloca i32, align 4
  call void @llvm.lifetime.start.p0(i64 4, ptr %1) #11
  call void @llvm.lifetime.start.p0(i64 4, ptr %2) #11
  br label %3

3:                                                ; preds = %6, %0
  %4 = load ptr, ptr @curlm, align 8, !tbaa !11
  %5 = call i32 @curl_multi_perform(ptr noundef %4, ptr noundef %1)
  store i32 %5, ptr %2, align 4, !tbaa !19
  br label %6

6:                                                ; preds = %3
  %7 = load i32, ptr %2, align 4, !tbaa !19
  %8 = icmp eq i32 %7, -1
  br i1 %8, label %3, label %9, !llvm.loop !127

9:                                                ; preds = %6
  %10 = load i32, ptr %1, align 4, !tbaa !19
  %11 = load i32, ptr @active_requests, align 4, !tbaa !19
  %12 = icmp slt i32 %10, %11
  br i1 %12, label %13, label %14

13:                                               ; preds = %9
  call void @process_curl_messages()
  call void @fill_active_slots()
  br label %14

14:                                               ; preds = %13, %9
  call void @llvm.lifetime.end.p0(i64 4, ptr %2) #11
  call void @llvm.lifetime.end.p0(i64 4, ptr %1) #11
  ret void
}