; Function Attrs: nounwind uwtable
define dso_local void @step_active_slots() local_unnamed_addr #3 {
  %1 = alloca i32, align 4
  call void @llvm.lifetime.start.p0(i64 4, ptr nonnull %1) #22
  br label %2

2:                                                ; preds = %2, %0
  %3 = load ptr, ptr @curlm, align 8, !tbaa !62
  %4 = call i32 @curl_multi_perform(ptr noundef %3, ptr noundef nonnull %1) #22
  %5 = icmp eq i32 %4, -1
  br i1 %5, label %2, label %6, !llvm.loop !118

6:                                                ; preds = %2
  %7 = load i32, ptr %1, align 4, !tbaa !38
  %8 = load i32, ptr @active_requests, align 4, !tbaa !38
  %9 = icmp slt i32 %7, %8
  br i1 %9, label %10, label %fill_active_slots.exit

10:                                               ; preds = %6
  call fastcc void @process_curl_messages()
  %11 = load ptr, ptr @active_queue_head, align 8, !tbaa !81
  %12 = load i32, ptr @active_requests, align 4, !tbaa !38
  %13 = load i32, ptr @max_requests, align 4, !tbaa !38
  %14 = icmp slt i32 %12, %13
  br i1 %14, label %.preheader.i, label %.critedge.i

.loopexit.i:                                      ; preds = %.lr.ph.i
  %15 = load i32, ptr @active_requests, align 4, !tbaa !38
  %16 = load i32, ptr @max_requests, align 4, !tbaa !38
  %17 = icmp slt i32 %15, %16
  br i1 %17, label %.preheader.i, label %.critedge.i

.preheader.i:                                     ; preds = %10, %.loopexit.i
  %.01119.i = load ptr, ptr @fill_cfg, align 8, !tbaa !114
  %.not20.i = icmp eq ptr %.01119.i, null
  br i1 %.not20.i, label %.critedge.i, label %.lr.ph.i

18:                                               ; preds = %.lr.ph.i
  %19 = getelementptr inbounds nuw i8, ptr %.01121.i, i64 16
  %.011.i = load ptr, ptr %19, align 8, !tbaa !114
  %.not.i = icmp eq ptr %.011.i, null
  br i1 %.not.i, label %.critedge.i, label %.lr.ph.i, !llvm.loop !116

.lr.ph.i:                                         ; preds = %.preheader.i, %18
  %.01121.i = phi ptr [ %.011.i, %18 ], [ %.01119.i, %.preheader.i ]
  %20 = getelementptr inbounds nuw i8, ptr %.01121.i, i64 8
  %21 = load ptr, ptr %20, align 8, !tbaa !112
  %22 = load ptr, ptr %.01121.i, align 8, !tbaa !109
  %23 = call i32 %21(ptr noundef %22) #22
  %.not14.i = icmp eq i32 %23, 0
  br i1 %.not14.i, label %18, label %.loopexit.i

.critedge.i:                                      ; preds = %.preheader.i, %.loopexit.i, %18, %10
  %.not1522.i = icmp eq ptr %11, null
  br i1 %.not1522.i, label %fill_active_slots.exit, label %.lr.ph24.i

.lr.ph24.i:                                       ; preds = %.critedge.i, %35
  %.01223.i = phi ptr [ %37, %35 ], [ %11, %.critedge.i ]
  %24 = getelementptr inbounds nuw i8, ptr %.01223.i, i64 8
  %25 = load i32, ptr %24, align 8, !tbaa !90
  %.not16.i = icmp eq i32 %25, 0
  br i1 %.not16.i, label %26, label %35

26:                                               ; preds = %.lr.ph24.i
  %27 = load ptr, ptr %.01223.i, align 8, !tbaa !87
  %.not17.i = icmp eq ptr %27, null
  br i1 %.not17.i, label %35, label %28

28:                                               ; preds = %26
  %29 = load i32, ptr @curl_session_count, align 4, !tbaa !38
  %30 = load i32, ptr @min_curl_sessions, align 4, !tbaa !38
  %31 = icmp sgt i32 %29, %30
  br i1 %31, label %32, label %35

32:                                               ; preds = %28
  call void @curl_easy_cleanup(ptr noundef nonnull %27) #22
  store ptr null, ptr %.01223.i, align 8, !tbaa !87
  %33 = load i32, ptr @curl_session_count, align 4, !tbaa !38
  %34 = add nsw i32 %33, -1
  store i32 %34, ptr @curl_session_count, align 4, !tbaa !38
  br label %35

35:                                               ; preds = %32, %28, %26, %.lr.ph24.i
  %36 = getelementptr inbounds nuw i8, ptr %.01223.i, i64 56
  %37 = load ptr, ptr %36, align 8, !tbaa !83
  %.not15.i = icmp eq ptr %37, null
  br i1 %.not15.i, label %fill_active_slots.exit, label %.lr.ph24.i, !llvm.loop !117

fill_active_slots.exit:                           ; preds = %35, %.critedge.i, %6
  call void @llvm.lifetime.end.p0(i64 4, ptr nonnull %1) #22
  ret void
}